target datalayout = "e-m:e-p270:32:32-p271:32:32-p272:64:64-i64:64-i128:128-f80:128-n8:16:32:64-S128"
target triple = "x86_64-pc-linux-gnu"

%struct.stbtt__buf = type { ptr, i32, i32 }
%struct.stbtt_fontinfo = type { ptr, ptr, i32, i32, i32, i32, i32, i32, i32, i32, i32, i32, i32, i32, %struct.stbtt__buf, %struct.stbtt__buf, %struct.stbtt__buf, %struct.stbtt__buf, %struct.stbtt__buf, %struct.stbtt__buf }

; Function Attrs: nounwind uwtable
define i32 @ttULONG(ptr noundef %0) #0 {
  %2 = alloca ptr, align 8
  store ptr %0, ptr %2, align 8, !tbaa !25
  %3 = load ptr, ptr %2, align 8, !tbaa !25
  %4 = getelementptr inbounds i8, ptr %3, i64 0
  %5 = load i8, ptr %4, align 1, !tbaa !13
  %6 = zext i8 %5 to i32
  %7 = shl i32 %6, 24
  %8 = load ptr, ptr %2, align 8, !tbaa !25
  %9 = getelementptr inbounds i8, ptr %8, i64 1
  %10 = load i8, ptr %9, align 1, !tbaa !13
  %11 = zext i8 %10 to i32
  %12 = shl i32 %11, 16
  %13 = add nsw i32 %7, %12
  %14 = load ptr, ptr %2, align 8, !tbaa !25
  %15 = getelementptr inbounds i8, ptr %14, i64 2
  %16 = load i8, ptr %15, align 1, !tbaa !13
  %17 = zext i8 %16 to i32
  %18 = shl i32 %17, 8
  %19 = add nsw i32 %13, %18
  %20 = load ptr, ptr %2, align 8, !tbaa !25
  %21 = getelementptr inbounds i8, ptr %20, i64 3
  %22 = load i8, ptr %21, align 1, !tbaa !13
  %23 = zext i8 %22 to i32
  %24 = add nsw i32 %19, %23
  ret i32 %24
}

; Function Attrs: nounwind uwtable
define zeroext i16 @ttUSHORT(ptr noundef %0) #0 {
  %2 = alloca ptr, align 8
  store ptr %0, ptr %2, align 8, !tbaa !25
  %3 = load ptr, ptr %2, align 8, !tbaa !25
  %4 = getelementptr inbounds i8, ptr %3, i64 0
  %5 = load i8, ptr %4, align 1, !tbaa !13
  %6 = zext i8 %5 to i32
  %7 = mul nsw i32 %6, 256
  %8 = load ptr, ptr %2, align 8, !tbaa !25
  %9 = getelementptr inbounds i8, ptr %8, i64 1
  %10 = load i8, ptr %9, align 1, !tbaa !13
  %11 = zext i8 %10 to i32
  %12 = add nsw i32 %7, %11
  %13 = trunc i32 %12 to i16
  ret i16 %13
}

; Function Attrs: nounwind uwtable
define i32 @stbtt__GetGlyfOffset(ptr noundef %0, i32 noundef %1) #0 {
  %3 = alloca i32, align 4
  %4 = alloca ptr, align 8
  %5 = alloca i32, align 4
  %6 = alloca i32, align 4
  %7 = alloca i32, align 4
  %8 = alloca i32, align 4
  store ptr %0, ptr %4, align 8, !tbaa !28
  store i32 %1, ptr %5, align 4, !tbaa !14
  call void @llvm.lifetime.start.p0(i64 4, ptr %6) #8
  call void @llvm.lifetime.start.p0(i64 4, ptr %7) #8
  %9 = load i32, ptr %5, align 4, !tbaa !14
  %10 = load ptr, ptr %4, align 8, !tbaa !28
  %11 = getelementptr inbounds nuw %struct.stbtt_fontinfo, ptr %10, i32 0, i32 3
  %12 = load i32, ptr %11, align 4, !tbaa !41
  %13 = icmp sge i32 %9, %12
  br i1 %13, label %14, label %15

14:                                               ; preds = %2
  store i32 -1, ptr %3, align 4
  store i32 1, ptr %8, align 4
  br label %111

15:                                               ; preds = %2
  %16 = load ptr, ptr %4, align 8, !tbaa !28
  %17 = getelementptr inbounds nuw %struct.stbtt_fontinfo, ptr %16, i32 0, i32 13
  %18 = load i32, ptr %17, align 4, !tbaa !44
  %19 = icmp sge i32 %18, 2
  br i1 %19, label %20, label %21

20:                                               ; preds = %15
  store i32 -1, ptr %3, align 4
  store i32 1, ptr %8, align 4
  br label %111

21:                                               ; preds = %15
  %22 = load ptr, ptr %4, align 8, !tbaa !28
  %23 = getelementptr inbounds nuw %struct.stbtt_fontinfo, ptr %22, i32 0, i32 13
  %24 = load i32, ptr %23, align 4, !tbaa !44
  %25 = icmp eq i32 %24, 0
  br i1 %25, label %26, label %66

26:                                               ; preds = %21
  %27 = load ptr, ptr %4, align 8, !tbaa !28
  %28 = getelementptr inbounds nuw %struct.stbtt_fontinfo, ptr %27, i32 0, i32 6
  %29 = load i32, ptr %28, align 8, !tbaa !36
  %30 = load ptr, ptr %4, align 8, !tbaa !28
  %31 = getelementptr inbounds nuw %struct.stbtt_fontinfo, ptr %30, i32 0, i32 1
  %32 = load ptr, ptr %31, align 8, !tbaa !32
  %33 = load ptr, ptr %4, align 8, !tbaa !28
  %34 = getelementptr inbounds nuw %struct.stbtt_fontinfo, ptr %33, i32 0, i32 4
  %35 = load i32, ptr %34, align 8, !tbaa !34
  %36 = sext i32 %35 to i64
  %37 = getelementptr inbounds i8, ptr %32, i64 %36
  %38 = load i32, ptr %5, align 4, !tbaa !14
  %39 = mul nsw i32 %38, 2
  %40 = sext i32 %39 to i64
  %41 = getelementptr inbounds i8, ptr %37, i64 %40
  %42 = call zeroext i16 @ttUSHORT(ptr noundef %41)
  %43 = zext i16 %42 to i32
  %44 = mul nsw i32 %43, 2
  %45 = add nsw i32 %29, %44
  store i32 %45, ptr %6, align 4, !tbaa !14
  %46 = load ptr, ptr %4, align 8, !tbaa !28
  %47 = getelementptr inbounds nuw %struct.stbtt_fontinfo, ptr %46, i32 0, i32 6
  %48 = load i32, ptr %47, align 8, !tbaa !36
  %49 = load ptr, ptr %4, align 8, !tbaa !28
  %50 = getelementptr inbounds nuw %struct.stbtt_fontinfo, ptr %49, i32 0, i32 1
  %51 = load ptr, ptr %50, align 8, !tbaa !32
  %52 = load ptr, ptr %4, align 8, !tbaa !28
  %53 = getelementptr inbounds nuw %struct.stbtt_fontinfo, ptr %52, i32 0, i32 4
  %54 = load i32, ptr %53, align 8, !tbaa !34
  %55 = sext i32 %54 to i64
  %56 = getelementptr inbounds i8, ptr %51, i64 %55
  %57 = load i32, ptr %5, align 4, !tbaa !14
  %58 = mul nsw i32 %57, 2
  %59 = sext i32 %58 to i64
  %60 = getelementptr inbounds i8, ptr %56, i64 %59
  %61 = getelementptr inbounds i8, ptr %60, i64 2
  %62 = call zeroext i16 @ttUSHORT(ptr noundef %61)
  %63 = zext i16 %62 to i32
  %64 = mul nsw i32 %63, 2
  %65 = add nsw i32 %48, %64
  store i32 %65, ptr %7, align 4, !tbaa !14
  br label %102

66:                                               ; preds = %21
  %67 = load ptr, ptr %4, align 8, !tbaa !28
  %68 = getelementptr inbounds nuw %struct.stbtt_fontinfo, ptr %67, i32 0, i32 6
  %69 = load i32, ptr %68, align 8, !tbaa !36
  %70 = load ptr, ptr %4, align 8, !tbaa !28
  %71 = getelementptr inbounds nuw %struct.stbtt_fontinfo, ptr %70, i32 0, i32 1
  %72 = load ptr, ptr %71, align 8, !tbaa !32
  %73 = load ptr, ptr %4, align 8, !tbaa !28
  %74 = getelementptr inbounds nuw %struct.stbtt_fontinfo, ptr %73, i32 0, i32 4
  %75 = load i32, ptr %74, align 8, !tbaa !34
  %76 = sext i32 %75 to i64
  %77 = getelementptr inbounds i8, ptr %72, i64 %76
  %78 = load i32, ptr %5, align 4, !tbaa !14
  %79 = mul nsw i32 %78, 4
  %80 = sext i32 %79 to i64
  %81 = getelementptr inbounds i8, ptr %77, i64 %80
  %82 = call i32 @ttULONG(ptr noundef %81)
  %83 = add i32 %69, %82
  store i32 %83, ptr %6, align 4, !tbaa !14
  %84 = load ptr, ptr %4, align 8, !tbaa !28
  %85 = getelementptr inbounds nuw %struct.stbtt_fontinfo, ptr %84, i32 0, i32 6
  %86 = load i32, ptr %85, align 8, !tbaa !36
  %87 = load ptr, ptr %4, align 8, !tbaa !28
  %88 = getelementptr inbounds nuw %struct.stbtt_fontinfo, ptr %87, i32 0, i32 1
  %89 = load ptr, ptr %88, align 8, !tbaa !32
  %90 = load ptr, ptr %4, align 8, !tbaa !28
  %91 = getelementptr inbounds nuw %struct.stbtt_fontinfo, ptr %90, i32 0, i32 4
  %92 = load i32, ptr %91, align 8, !tbaa !34
  %93 = sext i32 %92 to i64
  %94 = getelementptr inbounds i8, ptr %89, i64 %93
  %95 = load i32, ptr %5, align 4, !tbaa !14
  %96 = mul nsw i32 %95, 4
  %97 = sext i32 %96 to i64
  %98 = getelementptr inbounds i8, ptr %94, i64 %97
  %99 = getelementptr inbounds i8, ptr %98, i64 4
  %100 = call i32 @ttULONG(ptr noundef %99)
  %101 = add i32 %86, %100
  store i32 %101, ptr %7, align 4, !tbaa !14
  br label %102

102:                                              ; preds = %66, %26
  %103 = load i32, ptr %6, align 4, !tbaa !14
  %104 = load i32, ptr %7, align 4, !tbaa !14
  %105 = icmp eq i32 %103, %104
  br i1 %105, label %106, label %107

106:                                              ; preds = %102
  br label %109

107:                                              ; preds = %102
  %108 = load i32, ptr %6, align 4, !tbaa !14
  br label %109

109:                                              ; preds = %107, %106
  %110 = phi i32 [ -1, %106 ], [ %108, %107 ]
  store i32 %110, ptr %3, align 4
  store i32 1, ptr %8, align 4
  br label %111

111:                                              ; preds = %109, %20, %14
  call void @llvm.lifetime.end.p0(i64 4, ptr %7) #8
  call void @llvm.lifetime.end.p0(i64 4, ptr %6) #8
  %112 = load i32, ptr %3, align 4
  ret i32 %112
}