; Function Attrs: mustprogress nofree norecurse nosync nounwind willreturn memory(read, inaccessiblemem: none) uwtable
define i32 @stbtt__GetGlyfOffset(ptr noundef readonly captures(none) %0, i32 noundef %1) local_unnamed_addr #1 {
  %3 = getelementptr inbounds nuw i8, ptr %0, i64 20
  %4 = load i32, ptr %3, align 4, !tbaa !33
  %.not = icmp slt i32 %1, %4
  br i1 %.not, label %5, label %82

5:                                                ; preds = %2
  %6 = getelementptr inbounds nuw i8, ptr %0, i64 60
  %7 = load i32, ptr %6, align 4, !tbaa !36
  %8 = icmp sgt i32 %7, 1
  br i1 %8, label %82, label %9

9:                                                ; preds = %5
  %10 = icmp eq i32 %7, 0
  %11 = getelementptr inbounds nuw i8, ptr %0, i64 32
  %12 = load i32, ptr %11, align 8, !tbaa !27
  %13 = getelementptr inbounds nuw i8, ptr %0, i64 8
  %14 = load ptr, ptr %13, align 8, !tbaa !23
  %15 = getelementptr inbounds nuw i8, ptr %0, i64 24
  %16 = load i32, ptr %15, align 8, !tbaa !25
  %17 = sext i32 %16 to i64
  %18 = getelementptr inbounds i8, ptr %14, i64 %17
  br i1 %10, label %19, label %40

19:                                               ; preds = %9
  %20 = shl nsw i32 %1, 1
  %21 = sext i32 %20 to i64
  %22 = getelementptr inbounds i8, ptr %18, i64 %21
  %23 = load i8, ptr %22, align 1, !tbaa !12
  %24 = zext i8 %23 to i32
  %25 = getelementptr inbounds nuw i8, ptr %22, i64 1
  %26 = load i8, ptr %25, align 1, !tbaa !12
  %27 = zext i8 %26 to i32
  %28 = shl nuw nsw i32 %24, 9
  %29 = shl nuw nsw i32 %27, 1
  %30 = or disjoint i32 %29, %28
  %31 = getelementptr inbounds nuw i8, ptr %22, i64 2
  %32 = load i8, ptr %31, align 1, !tbaa !12
  %33 = zext i8 %32 to i32
  %34 = getelementptr inbounds nuw i8, ptr %22, i64 3
  %35 = load i8, ptr %34, align 1, !tbaa !12
  %36 = zext i8 %35 to i32
  %37 = shl nuw nsw i32 %33, 9
  %38 = shl nuw nsw i32 %36, 1
  %39 = or disjoint i32 %38, %37
  br label %79

40:                                               ; preds = %9
  %41 = shl nsw i32 %1, 2
  %42 = sext i32 %41 to i64
  %43 = getelementptr inbounds i8, ptr %18, i64 %42
  %44 = load i8, ptr %43, align 1, !tbaa !12
  %45 = zext i8 %44 to i32
  %46 = shl nuw i32 %45, 24
  %47 = getelementptr inbounds nuw i8, ptr %43, i64 1
  %48 = load i8, ptr %47, align 1, !tbaa !12
  %49 = zext i8 %48 to i32
  %50 = shl nuw nsw i32 %49, 16
  %51 = or disjoint i32 %50, %46
  %52 = getelementptr inbounds nuw i8, ptr %43, i64 2
  %53 = load i8, ptr %52, align 1, !tbaa !12
  %54 = zext i8 %53 to i32
  %55 = shl nuw nsw i32 %54, 8
  %56 = or disjoint i32 %51, %55
  %57 = getelementptr inbounds nuw i8, ptr %43, i64 3
  %58 = load i8, ptr %57, align 1, !tbaa !12
  %59 = zext i8 %58 to i32
  %60 = or disjoint i32 %56, %59
  %61 = getelementptr inbounds nuw i8, ptr %43, i64 4
  %62 = load i8, ptr %61, align 1, !tbaa !12
  %63 = zext i8 %62 to i32
  %64 = shl nuw i32 %63, 24
  %65 = getelementptr inbounds nuw i8, ptr %43, i64 5
  %66 = load i8, ptr %65, align 1, !tbaa !12
  %67 = zext i8 %66 to i32
  %68 = shl nuw nsw i32 %67, 16
  %69 = or disjoint i32 %68, %64
  %70 = getelementptr inbounds nuw i8, ptr %43, i64 6
  %71 = load i8, ptr %70, align 1, !tbaa !12
  %72 = zext i8 %71 to i32
  %73 = shl nuw nsw i32 %72, 8
  %74 = or disjoint i32 %69, %73
  %75 = getelementptr inbounds nuw i8, ptr %43, i64 7
  %76 = load i8, ptr %75, align 1, !tbaa !12
  %77 = zext i8 %76 to i32
  %78 = or disjoint i32 %74, %77
  br label %79

79:                                               ; preds = %40, %19
  %.sink = phi i32 [ %78, %40 ], [ %39, %19 ]
  %.pn = phi i32 [ %60, %40 ], [ %30, %19 ]
  %.023 = add i32 %.pn, %12
  %80 = icmp eq i32 %.pn, %.sink
  %81 = select i1 %80, i32 -1, i32 %.023
  br label %82

82:                                               ; preds = %5, %2, %79
  %.024 = phi i32 [ %81, %79 ], [ -1, %2 ], [ -1, %5 ]
  ret i32 %.024
}